target datalayout = "e-m:e-p270:32:32-p271:32:32-p272:64:64-i64:64-i128:128-f80:128-n8:16:32:64-S128"
target triple = "x86_64-pc-linux-gnu"

@.str = private unnamed_addr constant [34 x i8] c"../openssl/crypto/ec/ec_backend.c\00", align 1
@__func__.ossl_ec_key_from_pkcs8 = private unnamed_addr constant [23 x i8] c"ossl_ec_key_from_pkcs8\00", align 1

; Function Attrs: nounwind uwtable
define ptr @ossl_ec_key_from_pkcs8(ptr noundef %0, ptr noundef %1, ptr noundef %2) #0 {
  %4 = alloca ptr, align 8
  %5 = alloca ptr, align 8
  %6 = alloca ptr, align 8
  %7 = alloca ptr, align 8
  %8 = alloca ptr, align 8
  %9 = alloca i32, align 4
  %10 = alloca ptr, align 8
  %11 = alloca ptr, align 8
  %12 = alloca i32, align 4
  store ptr %0, ptr %5, align 8, !tbaa !81
  store ptr %1, ptr %6, align 8, !tbaa !29
  store ptr %2, ptr %7, align 8, !tbaa !3
  call void @llvm.lifetime.start.p0(i64 8, ptr %8) #3
  store ptr null, ptr %8, align 8, !tbaa !3
  call void @llvm.lifetime.start.p0(i64 4, ptr %9) #3
  call void @llvm.lifetime.start.p0(i64 8, ptr %10) #3
  store ptr null, ptr %10, align 8, !tbaa !18
  call void @llvm.lifetime.start.p0(i64 8, ptr %11) #3
  %13 = load ptr, ptr %5, align 8, !tbaa !81
  %14 = call i32 @PKCS8_pkey_get0(ptr noundef null, ptr noundef %8, ptr noundef %9, ptr noundef %11, ptr noundef %13)
  %15 = icmp ne i32 %14, 0
  br i1 %15, label %17, label %16

16:                                               ; preds = %3
  store ptr null, ptr %4, align 8
  store i32 1, ptr %12, align 4
  br label %35

17:                                               ; preds = %3
  %18 = load ptr, ptr %11, align 8, !tbaa !71
  %19 = load ptr, ptr %6, align 8, !tbaa !29
  %20 = load ptr, ptr %7, align 8, !tbaa !3
  %21 = call ptr @ossl_ec_key_param_from_x509_algor(ptr noundef %18, ptr noundef %19, ptr noundef %20)
  store ptr %21, ptr %10, align 8, !tbaa !18
  %22 = load ptr, ptr %10, align 8, !tbaa !18
  %23 = icmp eq ptr %22, null
  br i1 %23, label %24, label %25

24:                                               ; preds = %17
  br label %33

25:                                               ; preds = %17
  %26 = load i32, ptr %9, align 4, !tbaa !16
  %27 = sext i32 %26 to i64
  %28 = call ptr @d2i_ECPrivateKey(ptr noundef %10, ptr noundef %8, i64 noundef %27)
  %29 = icmp ne ptr %28, null
  br i1 %29, label %31, label %30

30:                                               ; preds = %25
  call void @ERR_new()
  call void @ERR_set_debug(ptr noundef @.str, i32 noundef 827, ptr noundef @__func__.ossl_ec_key_from_pkcs8)
  call void (i32, i32, ptr, ...) @ERR_set_error(i32 noundef 16, i32 noundef 142, ptr noundef null)
  br label %33

31:                                               ; preds = %25
  %32 = load ptr, ptr %10, align 8, !tbaa !18
  store ptr %32, ptr %4, align 8
  store i32 1, ptr %12, align 4
  br label %35

33:                                               ; preds = %30, %24
  %34 = load ptr, ptr %10, align 8, !tbaa !18
  call void @EC_KEY_free(ptr noundef %34)
  store ptr null, ptr %4, align 8
  store i32 1, ptr %12, align 4
  br label %35

35:                                               ; preds = %33, %31, %16
  call void @llvm.lifetime.end.p0(i64 8, ptr %11) #3
  call void @llvm.lifetime.end.p0(i64 8, ptr %10) #3
  call void @llvm.lifetime.end.p0(i64 4, ptr %9) #3
  call void @llvm.lifetime.end.p0(i64 8, ptr %8) #3
  %36 = load ptr, ptr %4, align 8
  ret ptr %36
}