; Function Attrs: nounwind uwtable
define ptr @ossl_ec_key_from_pkcs8(ptr noundef %0, ptr noundef %1, ptr noundef %2) local_unnamed_addr #0 {
  %4 = alloca ptr, align 8
  %5 = alloca i32, align 4
  %6 = alloca ptr, align 8
  %7 = alloca ptr, align 8
  call void @llvm.lifetime.start.p0(i64 8, ptr nonnull %4) #4
  store ptr null, ptr %4, align 8, !tbaa !26
  call void @llvm.lifetime.start.p0(i64 4, ptr nonnull %5) #4
  call void @llvm.lifetime.start.p0(i64 8, ptr nonnull %6) #4
  call void @llvm.lifetime.start.p0(i64 8, ptr nonnull %7) #4
  %8 = call i32 @PKCS8_pkey_get0(ptr noundef null, ptr noundef nonnull %4, ptr noundef nonnull %5, ptr noundef nonnull %7, ptr noundef %0) #4
  %.not = icmp eq i32 %8, 0
  br i1 %.not, label %22, label %9

9:                                                ; preds = %3
  %10 = load ptr, ptr %7, align 8, !tbaa !62
  %11 = call ptr @ossl_ec_key_param_from_x509_algor(ptr noundef %10, ptr noundef %1, ptr noundef %2)
  store ptr %11, ptr %6, align 8, !tbaa !60
  %12 = icmp eq ptr %11, null
  br i1 %12, label %20, label %13

13:                                               ; preds = %9
  %14 = load i32, ptr %5, align 4, !tbaa !29
  %15 = sext i32 %14 to i64
  %16 = call ptr @d2i_ECPrivateKey(ptr noundef nonnull %6, ptr noundef nonnull %4, i64 noundef %15) #4
  %.not4 = icmp eq ptr %16, null
  br i1 %.not4, label %17, label %18

17:                                               ; preds = %13
  call void @ERR_new() #4
  call void @ERR_set_debug(ptr noundef nonnull @.str, i32 noundef 827, ptr noundef nonnull @__func__.ossl_ec_key_from_pkcs8) #4
  call void (i32, i32, ptr, ...) @ERR_set_error(i32 noundef 16, i32 noundef 142, ptr noundef null) #4
  %.pre = load ptr, ptr %6, align 8, !tbaa !60
  br label %20

18:                                               ; preds = %13
  %19 = load ptr, ptr %6, align 8, !tbaa !60
  br label %22

20:                                               ; preds = %9, %17
  %21 = phi ptr [ null, %9 ], [ %.pre, %17 ]
  call void @EC_KEY_free(ptr noundef %21) #4
  br label %22

22:                                               ; preds = %3, %20, %18
  %.0 = phi ptr [ null, %20 ], [ %19, %18 ], [ null, %3 ]
  call void @llvm.lifetime.end.p0(i64 8, ptr nonnull %7) #4
  call void @llvm.lifetime.end.p0(i64 8, ptr nonnull %6) #4
  call void @llvm.lifetime.end.p0(i64 4, ptr nonnull %5) #4
  call void @llvm.lifetime.end.p0(i64 8, ptr nonnull %4) #4
  ret ptr %.0
}